; ModuleID = '54/168.c'
source_filename = "54/168.c"
target datalayout = "e-m:e-p270:32:32-p271:32:32-p272:64:64-i64:64-f80:128-n8:16:32:64-S128"
target triple = "x86_64-pc-linux-gnu"

@.str = private unnamed_addr constant [6 x i8] c"%d %d\00", align 1
@.str.1 = private unnamed_addr constant [3 x i8] c"%d\00", align 1

; Function Attrs: noinline nounwind uwtable
define dso_local i32 @allocable(i32 %0, i32 %1, i32 %2) #0 {
  %4 = alloca i32, align 4
  %5 = alloca i32, align 4
  %6 = alloca i32, align 4
  %7 = alloca i32, align 4
  store i32 %0, i32* %5, align 4
  store i32 %1, i32* %6, align 4
  store i32 %2, i32* %7, align 4
  %8 = load i32, i32* %6, align 4
  %9 = load i32, i32* %5, align 4
  %10 = srem i32 %8, %9
  %11 = load i32, i32* %7, align 4
  %12 = icmp eq i32 %10, %11
  br i1 %12, label %13, label %14

13:                                               ; preds = %3
  store i32 1, i32* %4, align 4
  br label %15

14:                                               ; preds = %3
  store i32 0, i32* %4, align 4
  br label %15

15:                                               ; preds = %14, %13
  %16 = load i32, i32* %4, align 4
  ret i32 %16
}

; Function Attrs: noinline nounwind uwtable
define dso_local void @main() #0 {
  %1 = alloca i32, align 4
  %2 = alloca i32, align 4
  %3 = alloca i32, align 4
  %4 = alloca i32, align 4
  %5 = alloca i32, align 4
  %6 = call i32 (i8*, ...) @__isoc99_scanf(i8* getelementptr inbounds ([6 x i8], [6 x i8]* @.str, i64 0, i64 0), i32* %1, i32* %2)
  store i32 1, i32* %3, align 4
  br label %7

7:                                                ; preds = %0, %40
  %8 = load i32, i32* %3, align 4
  %9 = add nsw i32 %8, 1
  store i32 %9, i32* %3, align 4
  %10 = load i32, i32* %3, align 4
  store i32 %10, i32* %5, align 4
  store i32 0, i32* %4, align 4
  br label %11

11:                                               ; preds = %32, %7
  %12 = load i32, i32* %4, align 4
  %13 = load i32, i32* %1, align 4
  %14 = icmp slt i32 %12, %13
  br i1 %14, label %15, label %35

15:                                               ; preds = %11
  %16 = load i32, i32* %1, align 4
  %17 = load i32, i32* %5, align 4
  %18 = load i32, i32* %2, align 4
  %19 = call i32 @allocable(i32 %16, i32 %17, i32 %18)
  %20 = icmp ne i32 %19, 0
  br i1 %20, label %21, label %30

21:                                               ; preds = %15
  %22 = load i32, i32* %5, align 4
  %23 = load i32, i32* %2, align 4
  %24 = sub nsw i32 %22, %23
  %25 = load i32, i32* %1, align 4
  %26 = sub nsw i32 %25, 1
  %27 = mul nsw i32 %24, %26
  %28 = load i32, i32* %1, align 4
  %29 = sdiv i32 %27, %28
  store i32 %29, i32* %5, align 4
  br label %31

30:                                               ; preds = %15
  br label %35

31:                                               ; preds = %21
  br label %32

32:                                               ; preds = %31
  %33 = load i32, i32* %4, align 4
  %34 = add nsw i32 %33, 1
  store i32 %34, i32* %4, align 4
  br label %11

35:                                               ; preds = %30, %11
  %36 = load i32, i32* %4, align 4
  %37 = load i32, i32* %1, align 4
  %38 = icmp eq i32 %36, %37
  br i1 %38, label %39, label %40

39:                                               ; preds = %35
  br label %41

40:                                               ; preds = %35
  br label %7

41:                                               ; preds = %39
  %42 = load i32, i32* %3, align 4
  %43 = call i32 (i8*, ...) @printf(i8* getelementptr inbounds ([3 x i8], [3 x i8]* @.str.1, i64 0, i64 0), i32 %42)
  ret void
}

declare dso_local i32 @__isoc99_scanf(i8*, ...) #1

declare dso_local i32 @printf(i8*, ...) #1


!llvm.module.flags = !{!0}
!llvm.ident = !{!1}

!0 = !{i32 1, !"wchar_size", i32 4}
!1 = !{!"clang version 10.0.0-4ubuntu1 "}
